target datalayout = "e-m:e-p270:32:32-p271:32:32-p272:64:64-i64:64-i128:128-f80:128-n8:16:32:64-S128"
target triple = "x86_64-pc-linux-gnu"

%struct.entry_t = type { i32, ptr }

@.str = private unnamed_addr constant [14 x i8] c"InvaildReason\00", align 1

; Function Attrs: nounwind uwtable
define dso_local ptr @job_state_reason_string(i32 noundef %0) #0 {
  %2 = alloca i32, align 4
  %3 = alloca ptr, align 8
  store i32 %0, ptr %2, align 4
  call void @llvm.lifetime.start.p0(i64 8, ptr %3) #3
  store ptr @.str, ptr %3, align 8
  %4 = load i32, ptr %2, align 4
  %5 = icmp ult i32 %4, 221
  br i1 %5, label %6, label %19

6:                                                ; preds = %1
  %7 = load i32, ptr %2, align 4
  %8 = zext i32 %7 to i64
  %9 = getelementptr inbounds nuw [221 x %struct.entry_t], ptr @jsra, i64 0, i64 %8
  %10 = getelementptr inbounds nuw %struct.entry_t, ptr %9, i32 0, i32 1
  %11 = load ptr, ptr %10, align 8
  %12 = icmp ne ptr %11, null
  br i1 %12, label %13, label %19

13:                                               ; preds = %6
  %14 = load i32, ptr %2, align 4
  %15 = zext i32 %14 to i64
  %16 = getelementptr inbounds nuw [221 x %struct.entry_t], ptr @jsra, i64 0, i64 %15
  %17 = getelementptr inbounds nuw %struct.entry_t, ptr %16, i32 0, i32 1
  %18 = load ptr, ptr %17, align 8
  store ptr %18, ptr %3, align 8
  br label %19

19:                                               ; preds = %13, %6, %1
  %20 = load ptr, ptr %3, align 8
  call void @llvm.lifetime.end.p0(i64 8, ptr %3) #3
  ret ptr %20
}