; Function Attrs: mustprogress nofree norecurse nosync nounwind willreturn memory(none) uwtable
define dso_local nonnull ptr @job_state_reason_string(i32 noundef %0) #0 {
  %2 = icmp ult i32 %0, 221
  br i1 %2, label %3, label %7

3:                                                ; preds = %1
  %4 = zext nneg i32 %0 to i64
  %5 = getelementptr inbounds nuw [221 x %struct.entry_t], ptr @jsra, i64 0, i64 %4, i32 1
  %6 = load ptr, ptr %5, align 8
  %.not = icmp eq ptr %6, null
  %spec.select = select i1 %.not, ptr @.str, ptr %6
  br label %7

7:                                                ; preds = %3, %1
  %.0 = phi ptr [ @.str, %1 ], [ %spec.select, %3 ]
  ret ptr %.0
}